target datalayout = "e-m:e-p270:32:32-p271:32:32-p272:64:64-i64:64-i128:128-f80:128-n8:16:32:64-S128"
target triple = "x86_64-pc-linux-gnu"

; Function Attrs: inlinehint nounwind uwtable
define internal i32 @is_xplatform_dir_sep(i32 noundef %0) #2 {
  %2 = alloca i32, align 4
  store i32 %0, ptr %2, align 4, !tbaa !17
  %3 = load i32, ptr %2, align 4, !tbaa !17
  %4 = icmp eq i32 %3, 47
  br i1 %4, label %8, label %5

5:                                                ; preds = %1
  %6 = load i32, ptr %2, align 4, !tbaa !17
  %7 = icmp eq i32 %6, 92
  br label %8

8:                                                ; preds = %5, %1
  %9 = phi i1 [ true, %1 ], [ %7, %5 ]
  %10 = zext i1 %9 to i32
  ret i32 %10
}

; Function Attrs: nounwind uwtable
define dso_local i32 @check_submodule_name(ptr noundef %0) #0 {
  %2 = alloca i32, align 4
  %3 = alloca ptr, align 8
  %4 = alloca i8, align 1
  store ptr %0, ptr %3, align 8, !tbaa !13
  %5 = load ptr, ptr %3, align 8, !tbaa !13
  %6 = load i8, ptr %5, align 1, !tbaa !15
  %7 = icmp ne i8 %6, 0
  br i1 %7, label %9, label %8

8:                                                ; preds = %1
  store i32 -1, ptr %2, align 4
  br label %52

9:                                                ; preds = %1
  br label %24

10:                                               ; No predecessors!
  br label %11

11:                                               ; preds = %50, %10
  %12 = load ptr, ptr %3, align 8, !tbaa !13
  %13 = load i8, ptr %12, align 1, !tbaa !15
  %14 = icmp ne i8 %13, 0
  br i1 %14, label %15, label %51

15:                                               ; preds = %11
  %16 = load ptr, ptr %3, align 8, !tbaa !13
  %17 = getelementptr inbounds nuw i8, ptr %16, i32 1
  store ptr %17, ptr %3, align 8, !tbaa !13
  %18 = load i8, ptr %16, align 1, !tbaa !15
  store i8 %18, ptr %4, align 1, !tbaa !15
  %19 = load i8, ptr %4, align 1, !tbaa !15
  %20 = sext i8 %19 to i32
  %21 = call i32 @is_xplatform_dir_sep(i32 noundef %20)
  %22 = icmp ne i32 %21, 0
  br i1 %22, label %23, label %50

23:                                               ; preds = %15
  br label %24

24:                                               ; preds = %23, %9
  %25 = load ptr, ptr %3, align 8, !tbaa !13
  %26 = getelementptr inbounds i8, ptr %25, i64 0
  %27 = load i8, ptr %26, align 1, !tbaa !15
  %28 = sext i8 %27 to i32
  %29 = icmp eq i32 %28, 46
  br i1 %29, label %30, label %49

30:                                               ; preds = %24
  %31 = load ptr, ptr %3, align 8, !tbaa !13
  %32 = getelementptr inbounds i8, ptr %31, i64 1
  %33 = load i8, ptr %32, align 1, !tbaa !15
  %34 = sext i8 %33 to i32
  %35 = icmp eq i32 %34, 46
  br i1 %35, label %36, label %49

36:                                               ; preds = %30
  %37 = load ptr, ptr %3, align 8, !tbaa !13
  %38 = getelementptr inbounds i8, ptr %37, i64 2
  %39 = load i8, ptr %38, align 1, !tbaa !15
  %40 = icmp ne i8 %39, 0
  br i1 %40, label %41, label %48

41:                                               ; preds = %36
  %42 = load ptr, ptr %3, align 8, !tbaa !13
  %43 = getelementptr inbounds i8, ptr %42, i64 2
  %44 = load i8, ptr %43, align 1, !tbaa !15
  %45 = sext i8 %44 to i32
  %46 = call i32 @is_xplatform_dir_sep(i32 noundef %45)
  %47 = icmp ne i32 %46, 0
  br i1 %47, label %48, label %49

48:                                               ; preds = %41, %36
  store i32 -1, ptr %2, align 4
  br label %52

49:                                               ; preds = %41, %30, %24
  br label %50

50:                                               ; preds = %49, %15
  br label %11, !llvm.loop !16

51:                                               ; preds = %11
  store i32 0, ptr %2, align 4
  br label %52

52:                                               ; preds = %51, %48, %8
  %53 = load i32, ptr %2, align 4
  ret i32 %53
}