; Function Attrs: nofree norecurse nosync nounwind memory(argmem: read) uwtable
define dso_local range(i32 -1, 1) i32 @check_submodule_name(ptr noundef readonly captures(none) %0) local_unnamed_addr #2 {
  %2 = load i8, ptr %0, align 1, !tbaa !24
  %.not = icmp eq i8 %2, 0
  br i1 %.not, label %.loopexit, label %.preheader

3:                                                ; preds = %14
  %4 = getelementptr inbounds nuw i8, ptr %.1, i64 1
  switch i8 %15, label %14 [
    i8 92, label %thread-pre-split
    i8 47, label %thread-pre-split
  ]

thread-pre-split:                                 ; preds = %3, %3
  %.pr = load i8, ptr %4, align 1, !tbaa !24
  br label %.preheader

.preheader:                                       ; preds = %1, %thread-pre-split
  %5 = phi i8 [ %.pr, %thread-pre-split ], [ %2, %1 ]
  %.08 = phi ptr [ %4, %thread-pre-split ], [ %0, %1 ]
  %6 = icmp eq i8 %5, 46
  br i1 %6, label %7, label %.preheader25

7:                                                ; preds = %.preheader
  %8 = getelementptr inbounds nuw i8, ptr %.08, i64 1
  %9 = load i8, ptr %8, align 1, !tbaa !24
  %10 = icmp eq i8 %9, 46
  br i1 %10, label %11, label %.preheader25

11:                                               ; preds = %7
  %12 = getelementptr inbounds nuw i8, ptr %.08, i64 2
  %13 = load i8, ptr %12, align 1, !tbaa !24
  switch i8 %13, label %.preheader25 [
    i8 0, label %.loopexit
    i8 92, label %.loopexit
    i8 47, label %.loopexit
  ]

.preheader25:                                     ; preds = %11, %7, %.preheader
  br label %14

14:                                               ; preds = %.preheader25, %3
  %.1 = phi ptr [ %4, %3 ], [ %.08, %.preheader25 ]
  %15 = load i8, ptr %.1, align 1, !tbaa !24
  %.not13 = icmp eq i8 %15, 0
  br i1 %.not13, label %.loopexit, label %3

.loopexit:                                        ; preds = %11, %11, %11, %14, %1
  %.0 = phi i32 [ -1, %1 ], [ 0, %14 ], [ -1, %11 ], [ -1, %11 ], [ -1, %11 ]
  ret i32 %.0
}